; Function Attrs: mustprogress uwtable
define internal fastcc void @_ZN5arrow8internal12_GLOBAL__N_117ValidateArrayImpl5VisitERKNS_14FixedWidthTypeE(ptr dead_on_unwind noalias writable align 8 %0, ptr readonly captures(none) %.0.val) unnamed_addr #1 align 2 {
  tail call void @llvm.experimental.noalias.scope.decl(metadata !473)
  %2 = getelementptr inbounds nuw i8, ptr %.0.val, i64 16
  %3 = load i64, ptr %2, align 8, !tbaa !49, !noalias !473
  %4 = icmp sgt i64 %3, 0
  br i1 %4, label %5, label %11

5:                                                ; preds = %1
  %6 = getelementptr i8, ptr %.0.val, i64 40
  %.val.val.i = load ptr, ptr %6, align 8, !tbaa !74, !noalias !473
  %7 = getelementptr inbounds nuw i8, ptr %.val.val.i, i64 16
  %8 = load ptr, ptr %7, align 8, !tbaa !102, !noalias !473
  %.not.i.i.i = icmp eq ptr %8, null
  br i1 %.not.i.i.i, label %_ZN5arrow8internal12_GLOBAL__N_117ValidateArrayImpl13IsBufferValidEi.exit.thread.i, label %_ZN5arrow8internal12_GLOBAL__N_117ValidateArrayImpl13IsBufferValidEi.exit.i

_ZN5arrow8internal12_GLOBAL__N_117ValidateArrayImpl13IsBufferValidEi.exit.i: ; preds = %5
  %9 = getelementptr inbounds nuw i8, ptr %8, i64 16
  %10 = load ptr, ptr %9, align 8, !tbaa !476, !noalias !473
  %.not.i = icmp eq ptr %10, null
  br i1 %.not.i, label %_ZN5arrow8internal12_GLOBAL__N_117ValidateArrayImpl13IsBufferValidEi.exit.thread.i, label %11

_ZN5arrow8internal12_GLOBAL__N_117ValidateArrayImpl13IsBufferValidEi.exit.thread.i: ; preds = %_ZN5arrow8internal12_GLOBAL__N_117ValidateArrayImpl13IsBufferValidEi.exit.i, %5
  tail call void @_ZN5arrow6Status8FromArgsIJRA53_KcEEES0_NS_10StatusCodeEDpOT_(ptr dead_on_unwind writable sret(%"class.arrow::Status") align 8 %0, i8 noundef signext 4, ptr noundef nonnull align 1 dereferenceable(53) @.str.25)
  br label %_ZN5arrow8internal12_GLOBAL__N_117ValidateArrayImpl25ValidateFixedWidthBuffersEv.exit

11:                                               ; preds = %_ZN5arrow8internal12_GLOBAL__N_117ValidateArrayImpl13IsBufferValidEi.exit.i, %1
  store ptr null, ptr %0, align 8, !tbaa !161, !alias.scope !477
  br label %_ZN5arrow8internal12_GLOBAL__N_117ValidateArrayImpl25ValidateFixedWidthBuffersEv.exit

_ZN5arrow8internal12_GLOBAL__N_117ValidateArrayImpl25ValidateFixedWidthBuffersEv.exit: ; preds = %_ZN5arrow8internal12_GLOBAL__N_117ValidateArrayImpl13IsBufferValidEi.exit.thread.i, %11
  ret void
}